
boot_button.elf:     file format elf32-littleriscv


Disassembly of section .init:

00000000 <InterruptVector>:
	void InterruptVector()         __attribute__((naked)) __attribute((section(".init"))) __attribute((weak,alias("InterruptVectorDefault"))) __attribute((naked));
	void InterruptVectorDefault()  __attribute__((naked)) __attribute((section(".init"))) __attribute((naked));
	void InterruptVectorDefault( void )
	{
		#if !defined(FUNCONF_TINYVECTOR) || !FUNCONF_TINYVECTOR
			asm volatile( DEFAULT_INTERRUPT_VECTOR_CONTENTS );
   0:	1500006f          	j	150 <handle_reset>
   4:	00000000          	.word	0x00000000
   8:	000001ee          	.word	0x000001ee
   c:	000001ee          	.word	0x000001ee
  10:	f3f9bda9          	.word	0xf3f9bda9
  14:	000001ee          	.word	0x000001ee
	...
  20:	000001ee          	.word	0x000001ee
  24:	000001ee          	.word	0x000001ee
	...
  30:	000001ee          	.word	0x000001ee
  34:	00000000          	.word	0x00000000
  38:	000001ee          	.word	0x000001ee
  3c:	00000000          	.word	0x00000000
  40:	000001ee          	.word	0x000001ee
  44:	000001ee          	.word	0x000001ee
  48:	000001ee          	.word	0x000001ee
  4c:	000001ee          	.word	0x000001ee
  50:	000001ee          	.word	0x000001ee
  54:	000001ee          	.word	0x000001ee
  58:	000001ee          	.word	0x000001ee
  5c:	00000000          	.word	0x00000000
  60:	000001ee          	.word	0x000001ee
  64:	000001ee          	.word	0x000001ee
  68:	000001ee          	.word	0x000001ee
  6c:	000001ee          	.word	0x000001ee
  70:	000001ee          	.word	0x000001ee
  74:	000001ee          	.word	0x000001ee
  78:	000001ee          	.word	0x000001ee
  7c:	000001ee          	.word	0x000001ee
  80:	000001ee          	.word	0x000001ee
  84:	000001ee          	.word	0x000001ee
  88:	000001ee          	.word	0x000001ee
  8c:	000001ee          	.word	0x000001ee

Disassembly of section .text:

00000090 <main>:

int main()
{

	    /* Output push-pull 5 mA drive. */
    *((unsigned long*)(0x400010B4u)) &= ~(1<<11);  //PA_PD_DRV &= ~(1<<11);
  90:	40001737          	lui	a4,0x40001
  94:	0b470613          	addi	a2,a4,180 # 400010b4 <_eusrstack+0x1fffe0b4>
  98:	421c                	lw	a5,0(a2)
  9a:	76fd                	lui	a3,0xfffff
  9c:	7ff68693          	addi	a3,a3,2047 # fffff7ff <_eusrstack+0xdfffc7ff>
  a0:	8ff5                	and	a5,a5,a3
  a2:	c21c                	sw	a5,0(a2)
    *((unsigned long*)(0x400010A0u)) |= (1<<11); //PA_DIR |= (1<<11);
  a4:	0a070713          	addi	a4,a4,160
  a8:	4314                	lw	a3,0(a4)
  aa:	6785                	lui	a5,0x1
  ac:	80078793          	addi	a5,a5,-2048 # 800 <_data_lma+0x610>
  b0:	8edd                	or	a3,a3,a5
  b2:	c314                	sw	a3,0(a4)

    for (int i=0;i<10;i++) {
        *((unsigned long*)(0x400010A8u)) |= (1<<11); //PA_OUT |= (1<<11);
  b4:	400015b7          	lui	a1,0x40001
    *((unsigned long*)(0x400010A0u)) |= (1<<11); //PA_DIR |= (1<<11);
  b8:	4729                	li	a4,10
        *((unsigned long*)(0x400010A8u)) |= (1<<11); //PA_OUT |= (1<<11);
  ba:	6609                	lui	a2,0x2
  bc:	0a858513          	addi	a0,a1,168 # 400010a8 <_eusrstack+0x1fffe0a8>
  c0:	4114                	lw	a3,0(a0)
  c2:	8edd                	or	a3,a3,a5
  c4:	c114                	sw	a3,0(a0)
  c6:	71060693          	addi	a3,a2,1808 # 2710 <boot_button.c.33c9074a+0x9c8>
    while (n) {
  ca:	eebd                	bnez	a3,148 <main+0xb8>
        delay_cycles(10000ul);
        *((unsigned long*)(0x400010ACu)) |= (1<<11); //PA_CLR |= (1<<11);
  cc:	0ac58513          	addi	a0,a1,172
  d0:	4114                	lw	a3,0(a0)
  d2:	8edd                	or	a3,a3,a5
  d4:	c114                	sw	a3,0(a0)
  d6:	71060693          	addi	a3,a2,1808
    while (n) {
  da:	eaad                	bnez	a3,14c <main+0xbc>
    for (int i=0;i<10;i++) {
  dc:	177d                	addi	a4,a4,-1
  de:	ff79                	bnez	a4,bc <main+0x2c>
  e0:	0003c7b7          	lui	a5,0x3c
		dst[index] = src[index];
  e4:	1ffc46b7          	lui	a3,0x1ffc4
	for (uint32_t index = 0; index < 0x2000; ++index) {
  e8:	0003e737          	lui	a4,0x3e
  ec:	0c078793          	addi	a5,a5,192 # 3c0c0 <boot_button.c.33c9074a+0x3a378>
		dst[index] = src[index];
  f0:	f4068693          	addi	a3,a3,-192 # 1ffc3f40 <boot_button.c.33c9074a+0x1ffc21f8>
	for (uint32_t index = 0; index < 0x2000; ++index) {
  f4:	0c070713          	addi	a4,a4,192 # 3e0c0 <boot_button.c.33c9074a+0x3c378>
		dst[index] = src[index];
  f8:	0007c583          	lbu	a1,0(a5)
  fc:	00d78633          	add	a2,a5,a3
	for (uint32_t index = 0; index < 0x2000; ++index) {
 100:	0785                	addi	a5,a5,1
		dst[index] = src[index];
 102:	00b60023          	sb	a1,0(a2)
	for (uint32_t index = 0; index < 0x2000; ++index) {
 106:	fee799e3          	bne	a5,a4,f8 <main+0x68>
	*(int32_t*)(0x20000100 + 0xc) = 0x00014505; // nop \n li a0,1, patch PA1 detection
 10a:	67d1                	lui	a5,0x14
 10c:	20000737          	lui	a4,0x20000
 110:	50578793          	addi	a5,a5,1285 # 14505 <boot_button.c.33c9074a+0x127bd>
 114:	10f72623          	sw	a5,268(a4) # 2000010c <_data_vma+0x10c>
 118:	200027b7          	lui	a5,0x20002
 11c:	ba078713          	addi	a4,a5,-1120 # 20001ba0 <__global_pointer$+0x17a4>
	for (uint32_t index = 0; index < 0x0474; ++index) {
 120:	07d1                	addi	a5,a5,20
		((volatile uint8_t *)0x20001ba0)[index] = 0;
 122:	00070023          	sb	zero,0(a4)
	for (uint32_t index = 0; index < 0x0474; ++index) {
 126:	0705                	addi	a4,a4,1
 128:	fef71de3          	bne	a4,a5,122 <main+0x92>
	asm( "la gp, 0x20002398\n"
 12c:	200021b7          	lui	gp,0x20002
 130:	39818193          	addi	gp,gp,920 # 20002398 <__global_pointer$+0x1f9c>
 134:	200012b7          	lui	t0,0x20001
 138:	19628293          	addi	t0,t0,406 # 20001196 <__global_pointer$+0xd9a>
 13c:	34129073          	csrw	mepc,t0
 140:	30200073          	mret
	
	// while(1)
	// {

	// }
}
 144:	4501                	li	a0,0
 146:	8082                	ret
        n--;
 148:	16fd                	addi	a3,a3,-1
 14a:	b741                	j	ca <main+0x3a>
 14c:	16fd                	addi	a3,a3,-1
 14e:	b771                	j	da <main+0x4a>

00000150 <handle_reset>:

#elif defined(CH32V10x) || defined(CH32V20x) || defined(CH32V30x) || defined(CH32L103) ||  defined(CH5xx)

void handle_reset( void )
{
	asm volatile( "\n\
 150:	20000197          	auipc	gp,0x20000
 154:	2ac18193          	addi	gp,gp,684 # 200003fc <__global_pointer$>
 158:	20003117          	auipc	sp,0x20003
 15c:	ea810113          	addi	sp,sp,-344 # 20003000 <_eusrstack>
#endif
			);

	// Careful: Use registers to prevent overwriting of self-data.
	// This clears out BSS.
	asm volatile(
 160:	c0418513          	addi	a0,gp,-1020 # 20000000 <_data_vma>
 164:	c0418593          	addi	a1,gp,-1020 # 20000000 <_data_vma>
 168:	00b57763          	bgeu	a0,a1,176 <handle_reset+0x26>
 16c:	00052023          	sw	zero,0(a0)
 170:	0511                	addi	a0,a0,4
 172:	feb56de3          	bltu	a0,a1,16c <handle_reset+0x1c>
 176:	09000513          	li	a0,144
 17a:	c0418593          	addi	a1,gp,-1020 # 20000000 <_data_vma>
 17e:	c0418613          	addi	a2,gp,-1020 # 20000000 <_data_vma>
 182:	00c5fa63          	bgeu	a1,a2,196 <handle_reset+0x46>
 186:	00052283          	lw	t0,0(a0)
 18a:	0055a023          	sw	t0,0(a1)
 18e:	0511                	addi	a0,a0,4
 190:	0591                	addi	a1,a1,4
 192:	fec5eae3          	bltu	a1,a2,186 <handle_reset+0x36>
 196:	1f000513          	li	a0,496
 19a:	c0418593          	addi	a1,gp,-1020 # 20000000 <_data_vma>
 19e:	c0418613          	addi	a2,gp,-1020 # 20000000 <_data_vma>
 1a2:	00c58a63          	beq	a1,a2,1b6 <handle_reset+0x66>
 1a6:	00052283          	lw	t0,0(a0)
 1aa:	0055a023          	sw	t0,0(a1)
 1ae:	0511                	addi	a0,a0,4
 1b0:	0591                	addi	a1,a1,4
 1b2:	fec5eae3          	bltu	a1,a2,1a6 <handle_reset+0x56>
#endif
: "a0", "a1", "a2", "a3", "memory"
);

	// Setup the interrupt vector, processor status and INTSYSCR.
	asm volatile(
 1b6:	00000793          	li	a5,0
 1ba:	42fd                	li	t0,31
 1bc:	bc029073          	csrw	0xbc0,t0
 1c0:	6289                	lui	t0,0x2
 1c2:	88828293          	addi	t0,t0,-1912 # 1888 <ch32fun.c.be652bbc+0x9fb>
 1c6:	3002a073          	csrs	mstatus,t0
 1ca:	00000297          	auipc	t0,0x0
 1ce:	e3628293          	addi	t0,t0,-458 # 0 <InterruptVector>
 1d2:	0032e293          	ori	t0,t0,3
 1d6:	30529073          	csrw	mtvec,t0
	);

#if defined( FUNCONF_SYSTICK_USE_HCLK ) && FUNCONF_SYSTICK_USE_HCLK && !defined(CH32V10x)
	SysTick->CTLR = 5;
#else
	SysTick->CTLR = 1;
 1da:	e000f7b7          	lui	a5,0xe000f
 1de:	4705                	li	a4,1
 1e0:	c398                	sw	a4,0(a5)
#endif

	// set mepc to be main as the root app.
	asm volatile(
 1e2:	09000793          	li	a5,144
 1e6:	34179073          	csrw	mepc,a5
 1ea:	30200073          	mret

000001ee <ADC1_2_IRQHandler>:
	asm volatile( "1: j 1b" );
 1ee:	a001                	j	1ee <ADC1_2_IRQHandler>
